target datalayout = "e-m:e-p270:32:32-p271:32:32-p272:64:64-i64:64-i128:128-f80:128-n8:16:32:64-S128"
target triple = "x86_64-pc-linux-gnu"

%struct.AVTXContext = type { i32, i32, ptr, ptr, ptr, ptr, [4 x ptr], i32, [4 x ptr], ptr, i32, i64, i32, float, double, ptr }
%struct.FFTXCodeletOptions = type { i32 }

; Function Attrs: nounwind uwtable
define i32 @ff_tx_gen_ptwo_revtab(ptr noundef %0, ptr noundef %1) #0 {
  %3 = alloca i32, align 4
  %4 = alloca ptr, align 8
  %5 = alloca ptr, align 8
  %6 = alloca i32, align 4
  %7 = alloca i32, align 4
  %8 = alloca i32, align 4
  %9 = alloca i32, align 4
  store ptr %0, ptr %4, align 8, !tbaa !4
  store ptr %1, ptr %5, align 8, !tbaa !9
  call void @llvm.lifetime.start.p0(i64 4, ptr %6) #11
  %10 = load ptr, ptr %4, align 8, !tbaa !4
  %11 = getelementptr inbounds nuw %struct.AVTXContext, ptr %10, i32 0, i32 0
  %12 = load i32, ptr %11, align 8, !tbaa !13
  store i32 %12, ptr %6, align 4, !tbaa !11
  %13 = load i32, ptr %6, align 4, !tbaa !11
  %14 = sext i32 %13 to i64
  %15 = mul i64 %14, 4
  %16 = call noalias ptr @av_malloc(i64 noundef %15)
  %17 = load ptr, ptr %4, align 8, !tbaa !4
  %18 = getelementptr inbounds nuw %struct.AVTXContext, ptr %17, i32 0, i32 2
  store ptr %16, ptr %18, align 8, !tbaa !20
  %19 = icmp ne ptr %16, null
  br i1 %19, label %21, label %20

20:                                               ; preds = %2
  store i32 -12, ptr %3, align 4
  store i32 1, ptr %7, align 4
  br label %99

21:                                               ; preds = %2
  %22 = load ptr, ptr %5, align 8, !tbaa !9
  %23 = icmp ne ptr %22, null
  br i1 %23, label %24, label %58

24:                                               ; preds = %21
  %25 = load ptr, ptr %5, align 8, !tbaa !9
  %26 = getelementptr inbounds nuw %struct.FFTXCodeletOptions, ptr %25, i32 0, i32 0
  %27 = load i32, ptr %26, align 4, !tbaa !22
  %28 = icmp eq i32 %27, 2
  br i1 %28, label %29, label %58

29:                                               ; preds = %24
  call void @llvm.lifetime.start.p0(i64 4, ptr %8) #11
  store i32 0, ptr %8, align 4, !tbaa !11
  br label %30

30:                                               ; preds = %54, %29
  %31 = load i32, ptr %8, align 4, !tbaa !11
  %32 = load ptr, ptr %4, align 8, !tbaa !4
  %33 = getelementptr inbounds nuw %struct.AVTXContext, ptr %32, i32 0, i32 0
  %34 = load i32, ptr %33, align 8, !tbaa !13
  %35 = icmp slt i32 %31, %34
  br i1 %35, label %37, label %36

36:                                               ; preds = %30
  store i32 2, ptr %7, align 4
  call void @llvm.lifetime.end.p0(i64 4, ptr %8) #11
  br label %57

37:                                               ; preds = %30
  %38 = load i32, ptr %8, align 4, !tbaa !11
  %39 = load ptr, ptr %4, align 8, !tbaa !4
  %40 = getelementptr inbounds nuw %struct.AVTXContext, ptr %39, i32 0, i32 2
  %41 = load ptr, ptr %40, align 8, !tbaa !20
  %42 = load i32, ptr %8, align 4, !tbaa !11
  %43 = load i32, ptr %6, align 4, !tbaa !11
  %44 = load ptr, ptr %4, align 8, !tbaa !4
  %45 = getelementptr inbounds nuw %struct.AVTXContext, ptr %44, i32 0, i32 1
  %46 = load i32, ptr %45, align 4, !tbaa !21
  %47 = call i32 @split_radix_permutation(i32 noundef %42, i32 noundef %43, i32 noundef %46)
  %48 = sub nsw i32 0, %47
  %49 = load i32, ptr %6, align 4, !tbaa !11
  %50 = sub nsw i32 %49, 1
  %51 = and i32 %48, %50
  %52 = sext i32 %51 to i64
  %53 = getelementptr inbounds i32, ptr %41, i64 %52
  store i32 %38, ptr %53, align 4, !tbaa !11
  br label %54

54:                                               ; preds = %37
  %55 = load i32, ptr %8, align 4, !tbaa !11
  %56 = add nsw i32 %55, 1
  store i32 %56, ptr %8, align 4, !tbaa !11
  br label %30, !llvm.loop !40

57:                                               ; preds = %36
  br label %87

58:                                               ; preds = %24, %21
  call void @llvm.lifetime.start.p0(i64 4, ptr %9) #11
  store i32 0, ptr %9, align 4, !tbaa !11
  br label %59

59:                                               ; preds = %83, %58
  %60 = load i32, ptr %9, align 4, !tbaa !11
  %61 = load ptr, ptr %4, align 8, !tbaa !4
  %62 = getelementptr inbounds nuw %struct.AVTXContext, ptr %61, i32 0, i32 0
  %63 = load i32, ptr %62, align 8, !tbaa !13
  %64 = icmp slt i32 %60, %63
  br i1 %64, label %66, label %65

65:                                               ; preds = %59
  store i32 5, ptr %7, align 4
  call void @llvm.lifetime.end.p0(i64 4, ptr %9) #11
  br label %86

66:                                               ; preds = %59
  %67 = load i32, ptr %9, align 4, !tbaa !11
  %68 = load i32, ptr %6, align 4, !tbaa !11
  %69 = load ptr, ptr %4, align 8, !tbaa !4
  %70 = getelementptr inbounds nuw %struct.AVTXContext, ptr %69, i32 0, i32 1
  %71 = load i32, ptr %70, align 4, !tbaa !21
  %72 = call i32 @split_radix_permutation(i32 noundef %67, i32 noundef %68, i32 noundef %71)
  %73 = sub nsw i32 0, %72
  %74 = load i32, ptr %6, align 4, !tbaa !11
  %75 = sub nsw i32 %74, 1
  %76 = and i32 %73, %75
  %77 = load ptr, ptr %4, align 8, !tbaa !4
  %78 = getelementptr inbounds nuw %struct.AVTXContext, ptr %77, i32 0, i32 2
  %79 = load ptr, ptr %78, align 8, !tbaa !20
  %80 = load i32, ptr %9, align 4, !tbaa !11
  %81 = sext i32 %80 to i64
  %82 = getelementptr inbounds i32, ptr %79, i64 %81
  store i32 %76, ptr %82, align 4, !tbaa !11
  br label %83

83:                                               ; preds = %66
  %84 = load i32, ptr %9, align 4, !tbaa !11
  %85 = add nsw i32 %84, 1
  store i32 %85, ptr %9, align 4, !tbaa !11
  br label %59, !llvm.loop !41

86:                                               ; preds = %65
  br label %87

87:                                               ; preds = %86, %57
  %88 = load ptr, ptr %5, align 8, !tbaa !9
  %89 = icmp ne ptr %88, null
  br i1 %89, label %90, label %94

90:                                               ; preds = %87
  %91 = load ptr, ptr %5, align 8, !tbaa !9
  %92 = getelementptr inbounds nuw %struct.FFTXCodeletOptions, ptr %91, i32 0, i32 0
  %93 = load i32, ptr %92, align 4, !tbaa !22
  br label %95

94:                                               ; preds = %87
  br label %95

95:                                               ; preds = %94, %90
  %96 = phi i32 [ %93, %90 ], [ 1, %94 ]
  %97 = load ptr, ptr %4, align 8, !tbaa !4
  %98 = getelementptr inbounds nuw %struct.AVTXContext, ptr %97, i32 0, i32 12
  store i32 %96, ptr %98, align 8, !tbaa !31
  store i32 0, ptr %3, align 4
  store i32 1, ptr %7, align 4
  br label %99

99:                                               ; preds = %95, %20
  call void @llvm.lifetime.end.p0(i64 4, ptr %6) #11
  %100 = load i32, ptr %3, align 4
  ret i32 %100
}