; Function Attrs: nounwind uwtable
define range(i32 -12, 1) i32 @ff_tx_gen_ptwo_revtab(ptr noundef captures(none) initializes((8, 16)) %0, ptr noundef readonly captures(address_is_null) %1) local_unnamed_addr #0 {
  %3 = load i32, ptr %0, align 8, !tbaa !4
  %4 = sext i32 %3 to i64
  %5 = shl nsw i64 %4, 2
  %6 = tail call noalias ptr @av_malloc(i64 noundef %5) #13
  %7 = getelementptr inbounds nuw i8, ptr %0, i64 8
  store ptr %6, ptr %7, align 8, !tbaa !16
  %.not = icmp eq ptr %6, null
  br i1 %.not, label %40, label %8

8:                                                ; preds = %2
  %.not29 = icmp eq ptr %1, null
  br i1 %.not29, label %24, label %9

9:                                                ; preds = %8
  %10 = load i32, ptr %1, align 4, !tbaa !18
  %11 = icmp eq i32 %10, 2
  br i1 %11, label %.preheader, label %24

.preheader:                                       ; preds = %9
  %12 = load i32, ptr %0, align 8, !tbaa !4
  %13 = icmp sgt i32 %12, 0
  br i1 %13, label %.lr.ph, label %.loopexit.thread

.lr.ph:                                           ; preds = %.preheader
  %14 = getelementptr inbounds nuw i8, ptr %0, i64 4
  %15 = load i32, ptr %14, align 4, !tbaa !17
  %16 = add nsw i32 %3, -1
  br label %17

17:                                               ; preds = %.lr.ph, %17
  %.02631 = phi i32 [ 0, %.lr.ph ], [ %23, %17 ]
  %18 = tail call fastcc i32 @split_radix_permutation(i32 noundef %.02631, i32 noundef %3, i32 noundef %15)
  %19 = sub nsw i32 0, %18
  %20 = and i32 %16, %19
  %21 = sext i32 %20 to i64
  %22 = getelementptr inbounds i32, ptr %6, i64 %21
  store i32 %.02631, ptr %22, align 4, !tbaa !20
  %23 = add nuw nsw i32 %.02631, 1
  %exitcond.not = icmp eq i32 %23, %12
  br i1 %exitcond.not, label %.loopexit.thread, label %17, !llvm.loop !36

24:                                               ; preds = %9, %8
  %25 = load i32, ptr %0, align 8, !tbaa !4
  %26 = icmp sgt i32 %25, 0
  br i1 %26, label %.lr.ph33, label %.loopexit

.lr.ph33:                                         ; preds = %24
  %27 = getelementptr inbounds nuw i8, ptr %0, i64 4
  %28 = load i32, ptr %27, align 4, !tbaa !17
  %29 = add nsw i32 %3, -1
  %wide.trip.count = zext nneg i32 %25 to i64
  br label %30

30:                                               ; preds = %.lr.ph33, %30
  %indvars.iv = phi i64 [ 0, %.lr.ph33 ], [ %indvars.iv.next, %30 ]
  %31 = trunc nuw nsw i64 %indvars.iv to i32
  %32 = tail call fastcc i32 @split_radix_permutation(i32 noundef %31, i32 noundef %3, i32 noundef %28)
  %33 = sub nsw i32 0, %32
  %34 = and i32 %29, %33
  %35 = getelementptr inbounds nuw i32, ptr %6, i64 %indvars.iv
  store i32 %34, ptr %35, align 4, !tbaa !20
  %indvars.iv.next = add nuw nsw i64 %indvars.iv, 1
  %exitcond36.not = icmp eq i64 %indvars.iv.next, %wide.trip.count
  br i1 %exitcond36.not, label %.loopexit, label %30, !llvm.loop !37

.loopexit:                                        ; preds = %30, %24
  br i1 %.not29, label %37, label %.loopexit.thread

.loopexit.thread:                                 ; preds = %17, %.preheader, %.loopexit
  %36 = load i32, ptr %1, align 4, !tbaa !18
  br label %37

37:                                               ; preds = %.loopexit, %.loopexit.thread
  %38 = phi i32 [ %36, %.loopexit.thread ], [ 1, %.loopexit ]
  %39 = getelementptr inbounds nuw i8, ptr %0, i64 136
  store i32 %38, ptr %39, align 8, !tbaa !28
  br label %40

40:                                               ; preds = %2, %37
  %.027 = phi i32 [ 0, %37 ], [ -12, %2 ]
  ret i32 %.027
}